target datalayout = "e-m:e-p270:32:32-p271:32:32-p272:64:64-i64:64-i128:128-f80:128-n8:16:32:64-S128"
target triple = "x86_64-pc-linux-gnu"

%"class.std::__cxx11::basic_string" = type { %"struct.std::__cxx11::basic_string<char>::_Alloc_hider", i64, %union.anon }
%"struct.std::__cxx11::basic_string<char>::_Alloc_hider" = type { ptr }
%union.anon = type { i64, [8 x i8] }
%class.StatementAssign = type { %class.Statement, i32, ptr, ptr, ptr, ptr, %"class.std::__cxx11::basic_string", %"class.std::__cxx11::basic_string" }
%class.Statement = type { ptr, i32, i32, ptr, ptr }

; Function Attrs: mustprogress uwtable
define dso_local void @_ZN15StatementAssignC2EP5BlockRK3Lhs10eAssignOpsRK10ExpressionPS7_PK11SafeOpFlagsRNSt7__cxx1112basic_stringIcSt11char_traitsIcESaIcEEESJ_(ptr noundef nonnull align 8 dereferenceable(136) %0, ptr noundef %1, ptr noundef nonnull align 8 dereferenceable(41) %2, i32 noundef %3, ptr noundef nonnull align 8 dereferenceable(24) %4, ptr noundef %5, ptr noundef %6, ptr noundef nonnull align 8 dereferenceable(32) %7, ptr noundef nonnull align 8 dereferenceable(32) %8) unnamed_addr #5 align 2 personality ptr @__gxx_personality_v0 {
  %10 = alloca ptr, align 8
  %11 = alloca ptr, align 8
  %12 = alloca ptr, align 8
  %13 = alloca i32, align 4
  %14 = alloca ptr, align 8
  %15 = alloca ptr, align 8
  %16 = alloca ptr, align 8
  %17 = alloca ptr, align 8
  %18 = alloca ptr, align 8
  %19 = alloca ptr, align 8
  %20 = alloca i32, align 4
  store ptr %0, ptr %10, align 8
  store ptr %1, ptr %11, align 8
  store ptr %2, ptr %12, align 8
  store i32 %3, ptr %13, align 4
  store ptr %4, ptr %14, align 8
  store ptr %5, ptr %15, align 8
  store ptr %6, ptr %16, align 8
  store ptr %7, ptr %17, align 8
  store ptr %8, ptr %18, align 8
  %21 = load ptr, ptr %10, align 8
  %22 = load ptr, ptr %11, align 8
  call void @_ZN9StatementC2E14eStatementTypeP5Block(ptr noundef nonnull align 8 dereferenceable(32) %21, i32 noundef 0, ptr noundef %22)
  store ptr getelementptr inbounds ({ [13 x ptr] }, ptr @_ZTV15StatementAssign, i32 0, i32 0, i32 2), ptr %21, align 8
  %23 = getelementptr inbounds %class.StatementAssign, ptr %21, i32 0, i32 1
  %24 = load i32, ptr %13, align 4
  store i32 %24, ptr %23, align 8
  %25 = getelementptr inbounds %class.StatementAssign, ptr %21, i32 0, i32 2
  %26 = load ptr, ptr %12, align 8
  store ptr %26, ptr %25, align 8
  %27 = getelementptr inbounds %class.StatementAssign, ptr %21, i32 0, i32 3
  %28 = load ptr, ptr %14, align 8
  store ptr %28, ptr %27, align 8
  %29 = getelementptr inbounds %class.StatementAssign, ptr %21, i32 0, i32 4
  %30 = load ptr, ptr %15, align 8
  store ptr %30, ptr %29, align 8
  %31 = getelementptr inbounds %class.StatementAssign, ptr %21, i32 0, i32 5
  %32 = load ptr, ptr %16, align 8
  store ptr %32, ptr %31, align 8
  %33 = getelementptr inbounds %class.StatementAssign, ptr %21, i32 0, i32 6
  %34 = load ptr, ptr %17, align 8
  invoke void @_ZNSt7__cxx1112basic_stringIcSt11char_traitsIcESaIcEEC1ERKS4_(ptr noundef nonnull align 8 dereferenceable(32) %33, ptr noundef nonnull align 8 dereferenceable(32) %34)
          to label %35 unwind label %39

35:                                               ; preds = %9
  %36 = getelementptr inbounds %class.StatementAssign, ptr %21, i32 0, i32 7
  %37 = load ptr, ptr %18, align 8
  invoke void @_ZNSt7__cxx1112basic_stringIcSt11char_traitsIcESaIcEEC1ERKS4_(ptr noundef nonnull align 8 dereferenceable(32) %36, ptr noundef nonnull align 8 dereferenceable(32) %37)
          to label %38 unwind label %43

38:                                               ; preds = %35
  ret void

39:                                               ; preds = %9
  %40 = landingpad { ptr, i32 }
          cleanup
  %41 = extractvalue { ptr, i32 } %40, 0
  store ptr %41, ptr %19, align 8
  %42 = extractvalue { ptr, i32 } %40, 1
  store i32 %42, ptr %20, align 4
  br label %47

43:                                               ; preds = %35
  %44 = landingpad { ptr, i32 }
          cleanup
  %45 = extractvalue { ptr, i32 } %44, 0
  store ptr %45, ptr %19, align 8
  %46 = extractvalue { ptr, i32 } %44, 1
  store i32 %46, ptr %20, align 4
  call void @_ZNSt7__cxx1112basic_stringIcSt11char_traitsIcESaIcEED1Ev(ptr noundef nonnull align 8 dereferenceable(32) %33) #3
  br label %47

47:                                               ; preds = %43, %39
  call void @_ZN9StatementD2Ev(ptr noundef nonnull align 8 dereferenceable(32) %21) #3
  br label %48

48:                                               ; preds = %47
  %49 = load ptr, ptr %19, align 8
  %50 = load i32, ptr %20, align 4
  %51 = insertvalue { ptr, i32 } poison, ptr %49, 0
  %52 = insertvalue { ptr, i32 } %51, i32 %50, 1
  resume { ptr, i32 } %52
}