; Function Attrs: mustprogress uwtable
define dso_local void @_ZN15StatementAssignC2EP5BlockRK3Lhs10eAssignOpsRK10ExpressionPS7_PK11SafeOpFlagsRNSt7__cxx1112basic_stringIcSt11char_traitsIcESaIcEEESJ_(ptr noundef nonnull align 8 dereferenceable(136) %0, ptr noundef %1, ptr noundef nonnull align 8 dereferenceable(41) %2, i32 noundef %3, ptr noundef nonnull align 8 dereferenceable(24) %4, ptr noundef %5, ptr noundef %6, ptr noundef nonnull align 8 dereferenceable(32) %7, ptr noundef nonnull align 8 dereferenceable(32) %8) unnamed_addr #4 align 2 personality ptr @__gxx_personality_v0 {
  tail call void @_ZN9StatementC2E14eStatementTypeP5Block(ptr noundef nonnull align 8 dereferenceable(32) %0, i32 noundef 0, ptr noundef %1)
  store ptr getelementptr inbounds ({ [13 x ptr] }, ptr @_ZTV15StatementAssign, i64 0, i32 0, i64 2), ptr %0, align 8
  %10 = getelementptr inbounds i8, ptr %0, i64 32
  store i32 %3, ptr %10, align 8
  %11 = getelementptr inbounds i8, ptr %0, i64 40
  store ptr %2, ptr %11, align 8
  %12 = getelementptr inbounds i8, ptr %0, i64 48
  store ptr %4, ptr %12, align 8
  %13 = getelementptr inbounds i8, ptr %0, i64 56
  store ptr %5, ptr %13, align 8
  %14 = getelementptr inbounds i8, ptr %0, i64 64
  store ptr %6, ptr %14, align 8
  %15 = getelementptr inbounds i8, ptr %0, i64 72
  invoke void @_ZNSt7__cxx1112basic_stringIcSt11char_traitsIcESaIcEEC1ERKS4_(ptr noundef nonnull align 8 dereferenceable(32) %15, ptr noundef nonnull align 8 dereferenceable(32) %7)
          to label %16 unwind label %19

16:                                               ; preds = %9
  %17 = getelementptr inbounds i8, ptr %0, i64 104
  invoke void @_ZNSt7__cxx1112basic_stringIcSt11char_traitsIcESaIcEEC1ERKS4_(ptr noundef nonnull align 8 dereferenceable(32) %17, ptr noundef nonnull align 8 dereferenceable(32) %8)
          to label %18 unwind label %21

18:                                               ; preds = %16
  ret void

19:                                               ; preds = %9
  %20 = landingpad { ptr, i32 }
          cleanup
  br label %23

21:                                               ; preds = %16
  %22 = landingpad { ptr, i32 }
          cleanup
  tail call void @_ZNSt7__cxx1112basic_stringIcSt11char_traitsIcESaIcEED1Ev(ptr noundef nonnull align 8 dereferenceable(32) %15) #19
  br label %23

23:                                               ; preds = %21, %19
  %.pn = phi { ptr, i32 } [ %22, %21 ], [ %20, %19 ]
  tail call void @_ZN9StatementD2Ev(ptr noundef nonnull align 8 dereferenceable(32) %0) #19
  resume { ptr, i32 } %.pn
}